target datalayout = "e-m:e-p270:32:32-p271:32:32-p272:64:64-i64:64-i128:128-f80:128-n8:16:32:64-S128"
target triple = "x86_64-pc-linux-gnu"

%class.SplitInfo = type { i64, i64, ptr, i32, ptr, ptr }
%class.ParallelCompactData = type { ptr, ptr, i64, ptr, i64 }
%"class.ParallelCompactData::RegionData" = type <{ ptr, i64, ptr, i32, i32, i32, [4 x i8] }>

@_ZN17PSParallelCompact13_summary_dataE = hidden global %class.ParallelCompactData zeroinitializer, align 8

; Function Attrs: mustprogress nounwind uwtable
define linkonce_odr hidden noundef i64 @_Z13pointer_deltaPVKvS0_m(ptr noundef %0, ptr noundef %1, i64 noundef %2) #1 comdat {
  %4 = alloca ptr, align 8
  %5 = alloca ptr, align 8
  %6 = alloca i64, align 8
  store ptr %0, ptr %4, align 8
  store ptr %1, ptr %5, align 8
  store i64 %2, ptr %6, align 8
  %7 = load ptr, ptr %4, align 8
  %8 = ptrtoint ptr %7 to i64
  %9 = load ptr, ptr %5, align 8
  %10 = ptrtoint ptr %9 to i64
  %11 = sub i64 %8, %10
  %12 = load i64, ptr %6, align 8
  %13 = udiv i64 %11, %12
  ret i64 %13
}

; Function Attrs: mustprogress nounwind uwtable
define linkonce_odr hidden noundef nonnull align 8 dereferenceable(40) ptr @_ZN17PSParallelCompact12summary_dataEv() #1 comdat align 2 {
  ret ptr @_ZN17PSParallelCompact13_summary_dataE
}

; Function Attrs: mustprogress nounwind uwtable
define linkonce_odr hidden noundef ptr @_ZNK19ParallelCompactData17region_align_downEPP12HeapWordImpl(ptr noundef nonnull align 8 dereferenceable(40) %0, ptr noundef %1) #1 comdat align 2 {
  %3 = alloca ptr, align 8
  %4 = alloca ptr, align 8
  store ptr %0, ptr %3, align 8
  store ptr %1, ptr %4, align 8
  %5 = load ptr, ptr %4, align 8
  %6 = ptrtoint ptr %5 to i64
  %7 = and i64 %6, -524288
  %8 = inttoptr i64 %7 to ptr
  ret ptr %8
}

; Function Attrs: mustprogress nounwind uwtable
define linkonce_odr hidden noundef i64 @_Z13pointer_deltaPKP12HeapWordImplS2_(ptr noundef %0, ptr noundef %1) #1 comdat {
  %3 = alloca ptr, align 8
  %4 = alloca ptr, align 8
  store ptr %0, ptr %3, align 8
  store ptr %1, ptr %4, align 8
  %5 = load ptr, ptr %3, align 8
  %6 = load ptr, ptr %4, align 8
  %7 = call noundef i64 @_Z13pointer_deltaPVKvS0_m(ptr noundef %5, ptr noundef %6, i64 noundef 8)
  ret i64 %7
}

; Function Attrs: mustprogress nounwind uwtable
define linkonce_odr hidden noundef ptr @_ZNK19ParallelCompactData14region_to_addrEm(ptr noundef nonnull align 8 dereferenceable(40) %0, i64 noundef %1) #1 comdat align 2 {
  %3 = alloca ptr, align 8
  %4 = alloca i64, align 8
  store ptr %0, ptr %3, align 8
  store i64 %1, ptr %4, align 8
  %5 = load ptr, ptr %3, align 8
  %6 = getelementptr inbounds %class.ParallelCompactData, ptr %5, i32 0, i32 0
  %7 = load ptr, ptr %6, align 8
  %8 = load i64, ptr %4, align 8
  %9 = shl i64 %8, 16
  %10 = getelementptr inbounds ptr, ptr %7, i64 %9
  ret ptr %10
}

; Function Attrs: mustprogress nounwind uwtable
define hidden void @_ZN9SplitInfo6recordEmmPP12HeapWordImpl(ptr noundef nonnull align 8 dereferenceable(48) %0, i64 noundef %1, i64 noundef %2, ptr noundef %3) #1 align 2 {
  %5 = alloca ptr, align 8
  %6 = alloca i64, align 8
  %7 = alloca i64, align 8
  %8 = alloca ptr, align 8
  %9 = alloca ptr, align 8
  %10 = alloca ptr, align 8
  %11 = alloca ptr, align 8
  %12 = alloca ptr, align 8
  %13 = alloca i64, align 8
  store ptr %0, ptr %5, align 8
  store i64 %1, ptr %6, align 8
  store i64 %2, ptr %7, align 8
  store ptr %3, ptr %8, align 8
  %14 = load ptr, ptr %5, align 8
  %15 = load i64, ptr %6, align 8
  %16 = getelementptr inbounds %class.SplitInfo, ptr %14, i32 0, i32 0
  store i64 %15, ptr %16, align 8
  %17 = load i64, ptr %7, align 8
  %18 = getelementptr inbounds %class.SplitInfo, ptr %14, i32 0, i32 1
  store i64 %17, ptr %18, align 8
  %19 = load ptr, ptr %8, align 8
  %20 = getelementptr inbounds %class.SplitInfo, ptr %14, i32 0, i32 2
  store ptr %19, ptr %20, align 8
  %21 = load ptr, ptr %8, align 8
  %22 = load i64, ptr %7, align 8
  %23 = getelementptr inbounds ptr, ptr %21, i64 %22
  %24 = getelementptr inbounds ptr, ptr %23, i64 -1
  store ptr %24, ptr %9, align 8
  %25 = call noundef nonnull align 8 dereferenceable(40) ptr @_ZN17PSParallelCompact12summary_dataEv()
  store ptr %25, ptr %10, align 8
  %26 = load ptr, ptr %10, align 8
  %27 = load ptr, ptr %8, align 8
  %28 = call noundef ptr @_ZNK19ParallelCompactData17region_align_downEPP12HeapWordImpl(ptr noundef nonnull align 8 dereferenceable(40) %26, ptr noundef %27)
  store ptr %28, ptr %11, align 8
  %29 = load ptr, ptr %10, align 8
  %30 = load ptr, ptr %9, align 8
  %31 = call noundef ptr @_ZNK19ParallelCompactData17region_align_downEPP12HeapWordImpl(ptr noundef nonnull align 8 dereferenceable(40) %29, ptr noundef %30)
  store ptr %31, ptr %12, align 8
  %32 = load ptr, ptr %11, align 8
  %33 = load ptr, ptr %12, align 8
  %34 = icmp eq ptr %32, %33
  br i1 %34, label %35, label %48

35:                                               ; preds = %4
  %36 = getelementptr inbounds %class.SplitInfo, ptr %14, i32 0, i32 3
  store i32 1, ptr %36, align 8
  %37 = load ptr, ptr %12, align 8
  %38 = load ptr, ptr %8, align 8
  %39 = icmp eq ptr %37, %38
  br i1 %39, label %40, label %47

40:                                               ; preds = %35
  %41 = load ptr, ptr %12, align 8
  %42 = getelementptr inbounds %class.SplitInfo, ptr %14, i32 0, i32 4
  store ptr %41, ptr %42, align 8
  %43 = load ptr, ptr %10, align 8
  %44 = load i64, ptr %6, align 8
  %45 = call noundef ptr @_ZNK19ParallelCompactData14region_to_addrEm(ptr noundef nonnull align 8 dereferenceable(40) %43, i64 noundef %44)
  %46 = getelementptr inbounds %class.SplitInfo, ptr %14, i32 0, i32 5
  store ptr %45, ptr %46, align 8
  br label %47

47:                                               ; preds = %40, %35
  br label %61

48:                                               ; preds = %4
  %49 = getelementptr inbounds %class.SplitInfo, ptr %14, i32 0, i32 3
  store i32 2, ptr %49, align 8
  %50 = load ptr, ptr %12, align 8
  %51 = getelementptr inbounds %class.SplitInfo, ptr %14, i32 0, i32 4
  store ptr %50, ptr %51, align 8
  %52 = load ptr, ptr %12, align 8
  %53 = load ptr, ptr %8, align 8
  %54 = call noundef i64 @_Z13pointer_deltaPKP12HeapWordImplS2_(ptr noundef %52, ptr noundef %53)
  store i64 %54, ptr %13, align 8
  %55 = load ptr, ptr %10, align 8
  %56 = load i64, ptr %6, align 8
  %57 = call noundef ptr @_ZNK19ParallelCompactData14region_to_addrEm(ptr noundef nonnull align 8 dereferenceable(40) %55, i64 noundef %56)
  %58 = load i64, ptr %13, align 8
  %59 = getelementptr inbounds ptr, ptr %57, i64 %58
  %60 = getelementptr inbounds %class.SplitInfo, ptr %14, i32 0, i32 5
  store ptr %59, ptr %60, align 8
  br label %61

61:                                               ; preds = %48, %47
  ret void
}

; Function Attrs: mustprogress nounwind uwtable
define linkonce_odr hidden void @_ZN19ParallelCompactData10RegionData20set_partial_obj_sizeEm(ptr noundef nonnull align 8 dereferenceable(36) %0, i64 noundef %1) #1 comdat align 2 {
  %3 = alloca ptr, align 8
  %4 = alloca i64, align 8
  store ptr %0, ptr %3, align 8
  store i64 %1, ptr %4, align 8
  %5 = load ptr, ptr %3, align 8
  %6 = load i64, ptr %4, align 8
  %7 = trunc i64 %6 to i32
  %8 = getelementptr inbounds %"class.ParallelCompactData::RegionData", ptr %5, i32 0, i32 3
  store i32 %7, ptr %8, align 8
  ret void
}

; Function Attrs: mustprogress nounwind uwtable
define linkonce_odr hidden void @_ZN19ParallelCompactData10RegionData17set_source_regionEm(ptr noundef nonnull align 8 dereferenceable(36) %0, i64 noundef %1) #1 comdat align 2 {
  %3 = alloca ptr, align 8
  %4 = alloca i64, align 8
  store ptr %0, ptr %3, align 8
  store i64 %1, ptr %4, align 8
  %5 = load ptr, ptr %3, align 8
  %6 = load i64, ptr %4, align 8
  %7 = getelementptr inbounds %"class.ParallelCompactData::RegionData", ptr %5, i32 0, i32 1
  store i64 %6, ptr %7, align 8
  ret void
}

; Function Attrs: mustprogress nounwind uwtable
define linkonce_odr hidden noundef ptr @_ZNK19ParallelCompactData15region_align_upEPP12HeapWordImpl(ptr noundef nonnull align 8 dereferenceable(40) %0, ptr noundef %1) #1 comdat align 2 {
  %3 = alloca ptr, align 8
  %4 = alloca ptr, align 8
  store ptr %0, ptr %3, align 8
  store ptr %1, ptr %4, align 8
  %5 = load ptr, ptr %3, align 8
  %6 = load ptr, ptr %4, align 8
  %7 = getelementptr inbounds ptr, ptr %6, i64 65535
  %8 = call noundef ptr @_ZNK19ParallelCompactData17region_align_downEPP12HeapWordImpl(ptr noundef nonnull align 8 dereferenceable(40) %5, ptr noundef %7)
  ret ptr %8
}

; Function Attrs: mustprogress nounwind uwtable
define linkonce_odr hidden noundef ptr @_ZNK19ParallelCompactData10RegionData11destinationEv(ptr noundef nonnull align 8 dereferenceable(36) %0) #1 comdat align 2 {
  %2 = alloca ptr, align 8
  store ptr %0, ptr %2, align 8
  %3 = load ptr, ptr %2, align 8
  %4 = getelementptr inbounds %"class.ParallelCompactData::RegionData", ptr %3, i32 0, i32 0
  %5 = load ptr, ptr %4, align 8
  ret ptr %5
}

; Function Attrs: mustprogress nounwind uwtable
define linkonce_odr hidden noundef ptr @_ZNK19ParallelCompactData6regionEm(ptr noundef nonnull align 8 dereferenceable(40) %0, i64 noundef %1) #1 comdat align 2 {
  %3 = alloca ptr, align 8
  %4 = alloca i64, align 8
  store ptr %0, ptr %3, align 8
  store i64 %1, ptr %4, align 8
  %5 = load ptr, ptr %3, align 8
  %6 = getelementptr inbounds %class.ParallelCompactData, ptr %5, i32 0, i32 3
  %7 = load ptr, ptr %6, align 8
  %8 = load i64, ptr %4, align 8
  %9 = getelementptr inbounds %"class.ParallelCompactData::RegionData", ptr %7, i64 %8
  ret ptr %9
}

; Function Attrs: mustprogress nounwind uwtable
define linkonce_odr hidden noundef i64 @_ZNK19ParallelCompactData18addr_to_region_idxEPKP12HeapWordImpl(ptr noundef nonnull align 8 dereferenceable(40) %0, ptr noundef %1) #1 comdat align 2 {
  %3 = alloca ptr, align 8
  %4 = alloca ptr, align 8
  store ptr %0, ptr %3, align 8
  store ptr %1, ptr %4, align 8
  %5 = load ptr, ptr %3, align 8
  %6 = load ptr, ptr %4, align 8
  %7 = getelementptr inbounds %class.ParallelCompactData, ptr %5, i32 0, i32 0
  %8 = load ptr, ptr %7, align 8
  %9 = call noundef i64 @_Z13pointer_deltaPKP12HeapWordImplS2_(ptr noundef %6, ptr noundef %8)
  %10 = lshr i64 %9, 16
  ret i64 %10
}

; Function Attrs: mustprogress nounwind uwtable
define linkonce_odr hidden noundef ptr @_ZNK19ParallelCompactData10RegionData16partial_obj_addrEv(ptr noundef nonnull align 8 dereferenceable(36) %0) #1 comdat align 2 {
  %2 = alloca ptr, align 8
  store ptr %0, ptr %2, align 8
  %3 = load ptr, ptr %2, align 8
  %4 = getelementptr inbounds %"class.ParallelCompactData::RegionData", ptr %3, i32 0, i32 2
  %5 = load ptr, ptr %4, align 8
  ret ptr %5
}

; Function Attrs: mustprogress nounwind uwtable
define linkonce_odr hidden noundef i64 @_ZNK19ParallelCompactData10RegionData16partial_obj_sizeEv(ptr noundef nonnull align 8 dereferenceable(36) %0) #1 comdat align 2 {
  %2 = alloca ptr, align 8
  store ptr %0, ptr %2, align 8
  %3 = load ptr, ptr %2, align 8
  %4 = getelementptr inbounds %"class.ParallelCompactData::RegionData", ptr %3, i32 0, i32 3
  %5 = load i32, ptr %4, align 8
  %6 = zext i32 %5 to i64
  ret i64 %6
}

; Function Attrs: mustprogress nounwind uwtable
define hidden noundef ptr @_ZN19ParallelCompactData21summarize_split_spaceEmR9SplitInfoPP12HeapWordImplS4_PS4_(ptr noundef nonnull align 8 dereferenceable(40) %0, i64 noundef %1, ptr noundef nonnull align 8 dereferenceable(48) %2, ptr noundef %3, ptr noundef %4, ptr noundef %5) #1 align 2 {
  %7 = alloca ptr, align 8
  %8 = alloca i64, align 8
  %9 = alloca ptr, align 8
  %10 = alloca ptr, align 8
  %11 = alloca ptr, align 8
  %12 = alloca ptr, align 8
  %13 = alloca i64, align 8
  %14 = alloca ptr, align 8
  %15 = alloca i64, align 8
  %16 = alloca ptr, align 8
  %17 = alloca ptr, align 8
  %18 = alloca i64, align 8
  %19 = alloca i64, align 8
  %20 = alloca i64, align 8
  %21 = alloca ptr, align 8
  store ptr %0, ptr %7, align 8
  store i64 %1, ptr %8, align 8
  store ptr %2, ptr %9, align 8
  store ptr %3, ptr %10, align 8
  store ptr %4, ptr %11, align 8
  store ptr %5, ptr %12, align 8
  %22 = load ptr, ptr %7, align 8
  %23 = load i64, ptr %8, align 8
  store i64 %23, ptr %13, align 8
  %24 = load ptr, ptr %10, align 8
  store ptr %24, ptr %14, align 8
  %25 = getelementptr inbounds %class.ParallelCompactData, ptr %22, i32 0, i32 3
  %26 = load ptr, ptr %25, align 8
  %27 = load i64, ptr %8, align 8
  %28 = getelementptr inbounds %"class.ParallelCompactData::RegionData", ptr %26, i64 %27
  %29 = call noundef i64 @_ZNK19ParallelCompactData10RegionData16partial_obj_sizeEv(ptr noundef nonnull align 8 dereferenceable(36) %28)
  store i64 %29, ptr %15, align 8
  %30 = load ptr, ptr %10, align 8
  %31 = load i64, ptr %15, align 8
  %32 = getelementptr inbounds ptr, ptr %30, i64 %31
  %33 = load ptr, ptr %11, align 8
  %34 = icmp ugt ptr %32, %33
  br i1 %34, label %35, label %72

35:                                               ; preds = %6
  %36 = getelementptr inbounds %class.ParallelCompactData, ptr %22, i32 0, i32 3
  %37 = load ptr, ptr %36, align 8
  %38 = load i64, ptr %8, align 8
  %39 = getelementptr inbounds %"class.ParallelCompactData::RegionData", ptr %37, i64 %38
  %40 = call noundef ptr @_ZNK19ParallelCompactData10RegionData16partial_obj_addrEv(ptr noundef nonnull align 8 dereferenceable(36) %39)
  store ptr %40, ptr %16, align 8
  %41 = load ptr, ptr %16, align 8
  %42 = call noundef i64 @_ZNK19ParallelCompactData18addr_to_region_idxEPKP12HeapWordImpl(ptr noundef nonnull align 8 dereferenceable(40) %22, ptr noundef %41)
  store i64 %42, ptr %13, align 8
  %43 = load i64, ptr %13, align 8
  %44 = call noundef ptr @_ZNK19ParallelCompactData6regionEm(ptr noundef nonnull align 8 dereferenceable(40) %22, i64 noundef %43)
  store ptr %44, ptr %17, align 8
  %45 = load ptr, ptr %17, align 8
  %46 = call noundef ptr @_ZNK19ParallelCompactData10RegionData11destinationEv(ptr noundef nonnull align 8 dereferenceable(36) %45)
  %47 = load ptr, ptr %17, align 8
  %48 = call noundef i64 @_ZNK19ParallelCompactData10RegionData16partial_obj_sizeEv(ptr noundef nonnull align 8 dereferenceable(36) %47)
  %49 = getelementptr inbounds ptr, ptr %46, i64 %48
  %50 = call noundef ptr @_ZNK19ParallelCompactData15region_align_upEPP12HeapWordImpl(ptr noundef nonnull align 8 dereferenceable(40) %22, ptr noundef %49)
  %51 = call noundef i64 @_ZNK19ParallelCompactData18addr_to_region_idxEPKP12HeapWordImpl(ptr noundef nonnull align 8 dereferenceable(40) %22, ptr noundef %50)
  store i64 %51, ptr %18, align 8
  %52 = load ptr, ptr %11, align 8
  %53 = call noundef i64 @_ZNK19ParallelCompactData18addr_to_region_idxEPKP12HeapWordImpl(ptr noundef nonnull align 8 dereferenceable(40) %22, ptr noundef %52)
  store i64 %53, ptr %19, align 8
  %54 = load i64, ptr %18, align 8
  store i64 %54, ptr %20, align 8
  br label %55

55:                                               ; preds = %64, %35
  %56 = load i64, ptr %20, align 8
  %57 = load i64, ptr %19, align 8
  %58 = icmp ult i64 %56, %57
  br i1 %58, label %59, label %67

59:                                               ; preds = %55
  %60 = getelementptr inbounds %class.ParallelCompactData, ptr %22, i32 0, i32 3
  %61 = load ptr, ptr %60, align 8
  %62 = load i64, ptr %20, align 8
  %63 = getelementptr inbounds %"class.ParallelCompactData::RegionData", ptr %61, i64 %62
  call void @_ZN19ParallelCompactData10RegionData17set_source_regionEm(ptr noundef nonnull align 8 dereferenceable(36) %63, i64 noundef 0)
  br label %64

64:                                               ; preds = %59
  %65 = load i64, ptr %20, align 8
  %66 = add i64 %65, 1
  store i64 %66, ptr %20, align 8
  br label %55, !llvm.loop !9

67:                                               ; preds = %55
  %68 = load ptr, ptr %17, align 8
  %69 = call noundef ptr @_ZNK19ParallelCompactData10RegionData11destinationEv(ptr noundef nonnull align 8 dereferenceable(36) %68)
  store ptr %69, ptr %14, align 8
  %70 = load ptr, ptr %17, align 8
  %71 = call noundef i64 @_ZNK19ParallelCompactData10RegionData16partial_obj_sizeEv(ptr noundef nonnull align 8 dereferenceable(36) %70)
  store i64 %71, ptr %15, align 8
  br label %72

72:                                               ; preds = %67, %6
  %73 = load i64, ptr %15, align 8
  %74 = icmp ne i64 %73, 0
  br i1 %74, label %75, label %84

75:                                               ; preds = %72
  %76 = getelementptr inbounds %class.ParallelCompactData, ptr %22, i32 0, i32 3
  %77 = load ptr, ptr %76, align 8
  %78 = load i64, ptr %13, align 8
  %79 = getelementptr inbounds %"class.ParallelCompactData::RegionData", ptr %77, i64 %78
  call void @_ZN19ParallelCompactData10RegionData20set_partial_obj_sizeEm(ptr noundef nonnull align 8 dereferenceable(36) %79, i64 noundef 0)
  %80 = load ptr, ptr %9, align 8
  %81 = load i64, ptr %13, align 8
  %82 = load i64, ptr %15, align 8
  %83 = load ptr, ptr %14, align 8
  call void @_ZN9SplitInfo6recordEmmPP12HeapWordImpl(ptr noundef nonnull align 8 dereferenceable(48) %80, i64 noundef %81, i64 noundef %82, ptr noundef %83)
  br label %84

84:                                               ; preds = %75, %72
  %85 = load ptr, ptr %14, align 8
  %86 = load i64, ptr %15, align 8
  %87 = getelementptr inbounds ptr, ptr %85, i64 %86
  %88 = load ptr, ptr %12, align 8
  store ptr %87, ptr %88, align 8
  %89 = load i64, ptr %13, align 8
  %90 = call noundef ptr @_ZNK19ParallelCompactData14region_to_addrEm(ptr noundef nonnull align 8 dereferenceable(40) %22, i64 noundef %89)
  %91 = load i64, ptr %15, align 8
  %92 = getelementptr inbounds ptr, ptr %90, i64 %91
  store ptr %92, ptr %21, align 8
  %93 = load ptr, ptr %21, align 8
  ret ptr %93
}