; Function Attrs: mustprogress nofree norecurse nosync nounwind memory(readwrite, inaccessiblemem: none) uwtable
define hidden noundef ptr @_ZN19ParallelCompactData21summarize_split_spaceEmR9SplitInfoPP12HeapWordImplS4_PS4_(ptr nocapture noundef nonnull readonly align 8 dereferenceable(40) %0, i64 noundef %1, ptr nocapture noundef nonnull writeonly align 8 dereferenceable(48) %2, ptr noundef %3, ptr noundef %4, ptr nocapture noundef writeonly %5) local_unnamed_addr #9 align 2 {
  %7 = getelementptr inbounds i8, ptr %0, i64 24
  %8 = load ptr, ptr %7, align 8
  %9 = getelementptr inbounds %"class.ParallelCompactData::RegionData", ptr %8, i64 %1
  %10 = getelementptr inbounds i8, ptr %9, i64 24
  %11 = load i32, ptr %10, align 8
  %12 = zext i32 %11 to i64
  %13 = getelementptr inbounds ptr, ptr %3, i64 %12
  %14 = icmp ugt ptr %13, %4
  br i1 %14, label %15, label %._crit_edge

15:                                               ; preds = %6
  %16 = getelementptr inbounds i8, ptr %9, i64 16
  %17 = load ptr, ptr %16, align 8
  %18 = load ptr, ptr %0, align 8
  %19 = ptrtoint ptr %17 to i64
  %20 = ptrtoint ptr %18 to i64
  %21 = sub i64 %19, %20
  %22 = lshr i64 %21, 19
  %23 = getelementptr inbounds %"class.ParallelCompactData::RegionData", ptr %8, i64 %22
  %24 = load ptr, ptr %23, align 8
  %25 = getelementptr inbounds i8, ptr %23, i64 24
  %26 = load i32, ptr %25, align 8
  %27 = zext i32 %26 to i64
  %28 = getelementptr inbounds ptr, ptr %24, i64 %27
  %29 = getelementptr inbounds i8, ptr %28, i64 524280
  %30 = ptrtoint ptr %29 to i64
  %31 = and i64 %30, -524288
  %32 = sub i64 %31, %20
  %33 = lshr i64 %32, 19
  %34 = ptrtoint ptr %4 to i64
  %35 = sub i64 %34, %20
  %36 = lshr i64 %35, 19
  %37 = icmp ult i64 %33, %36
  br i1 %37, label %.lr.ph, label %._crit_edge

.lr.ph:                                           ; preds = %15, %.lr.ph
  %.03135 = phi i64 [ %40, %.lr.ph ], [ %33, %15 ]
  %38 = load ptr, ptr %7, align 8
  %39 = getelementptr inbounds %"class.ParallelCompactData::RegionData", ptr %38, i64 %.03135, i32 1
  store i64 0, ptr %39, align 8
  %40 = add nuw nsw i64 %.03135, 1
  %exitcond.not = icmp eq i64 %40, %36
  br i1 %exitcond.not, label %._crit_edge.loopexit, label %.lr.ph, !llvm.loop !11

._crit_edge.loopexit:                             ; preds = %.lr.ph
  %.pre = load ptr, ptr %23, align 8
  %.pre36 = load i32, ptr %25, align 8
  %.pre37 = zext i32 %.pre36 to i64
  br label %._crit_edge

._crit_edge:                                      ; preds = %15, %._crit_edge.loopexit, %6
  %.033 = phi i64 [ %12, %6 ], [ %.pre37, %._crit_edge.loopexit ], [ %27, %15 ]
  %.032 = phi ptr [ %3, %6 ], [ %.pre, %._crit_edge.loopexit ], [ %24, %15 ]
  %.0 = phi i64 [ %1, %6 ], [ %22, %._crit_edge.loopexit ], [ %22, %15 ]
  %.not = icmp eq i64 %.033, 0
  br i1 %.not, label %_ZN9SplitInfo6recordEmmPP12HeapWordImpl.exit, label %41

41:                                               ; preds = %._crit_edge
  %42 = load ptr, ptr %7, align 8
  %43 = getelementptr inbounds %"class.ParallelCompactData::RegionData", ptr %42, i64 %.0, i32 3
  store i32 0, ptr %43, align 8
  store i64 %.0, ptr %2, align 8
  %44 = getelementptr inbounds i8, ptr %2, i64 8
  store i64 %.033, ptr %44, align 8
  %45 = getelementptr inbounds i8, ptr %2, i64 16
  store ptr %.032, ptr %45, align 8
  %46 = getelementptr inbounds ptr, ptr %.032, i64 %.033
  %47 = getelementptr inbounds i8, ptr %46, i64 -8
  %48 = ptrtoint ptr %.032 to i64
  %49 = and i64 %48, -524288
  %50 = inttoptr i64 %49 to ptr
  %51 = ptrtoint ptr %47 to i64
  %52 = and i64 %51, -524288
  %53 = inttoptr i64 %52 to ptr
  %54 = icmp eq ptr %50, %53
  %55 = getelementptr inbounds i8, ptr %2, i64 24
  br i1 %54, label %56, label %62

56:                                               ; preds = %41
  store i32 1, ptr %55, align 8
  %57 = icmp eq ptr %.032, %50
  br i1 %57, label %58, label %_ZN9SplitInfo6recordEmmPP12HeapWordImpl.exit

58:                                               ; preds = %56
  %59 = getelementptr inbounds i8, ptr %2, i64 32
  store ptr %53, ptr %59, align 8
  %60 = load ptr, ptr @_ZN17PSParallelCompact13_summary_dataE, align 8
  %.idx.i.i = shl i64 %.0, 19
  %61 = getelementptr inbounds i8, ptr %60, i64 %.idx.i.i
  br label %.sink.split.i

62:                                               ; preds = %41
  store i32 2, ptr %55, align 8
  %63 = getelementptr inbounds i8, ptr %2, i64 32
  store ptr %53, ptr %63, align 8
  %64 = sub i64 %52, %48
  %65 = lshr i64 %64, 3
  %66 = load ptr, ptr @_ZN17PSParallelCompact13_summary_dataE, align 8
  %.idx.i22.i = shl i64 %.0, 19
  %67 = getelementptr inbounds i8, ptr %66, i64 %.idx.i22.i
  %68 = getelementptr inbounds ptr, ptr %67, i64 %65
  br label %.sink.split.i

.sink.split.i:                                    ; preds = %62, %58
  %.sink.i = phi ptr [ %61, %58 ], [ %68, %62 ]
  %69 = getelementptr inbounds i8, ptr %2, i64 40
  store ptr %.sink.i, ptr %69, align 8
  br label %_ZN9SplitInfo6recordEmmPP12HeapWordImpl.exit

_ZN9SplitInfo6recordEmmPP12HeapWordImpl.exit:     ; preds = %.sink.split.i, %56, %._crit_edge
  %70 = getelementptr inbounds ptr, ptr %.032, i64 %.033
  store ptr %70, ptr %5, align 8
  %71 = load ptr, ptr %0, align 8
  %.idx.i = shl i64 %.0, 19
  %72 = getelementptr inbounds i8, ptr %71, i64 %.idx.i
  %73 = getelementptr inbounds ptr, ptr %72, i64 %.033
  ret ptr %73
}